target datalayout = "e-m:e-p270:32:32-p271:32:32-p272:64:64-i64:64-i128:128-f80:128-n8:16:32:64-S128"
target triple = "x86_64-pc-linux-gnu"

%struct.DecodedCert = type { ptr, i32, i32, i32, i32, i32, i32, i32, i32, i32, i32, ptr, ptr, ptr, ptr, ptr, [20 x i8], [20 x i8], ptr, ptr, i32, i8, [256 x i8], [256 x i8], i32, ptr, i32, i32, ptr, [32 x i8], i32, ptr, i32, i32, ptr, i32, ptr, i32, ptr, i32, [20 x i8], i32, [20 x i8], i32, i8, i8, i8, i16, i8, i32, ptr, i32, ptr, i32, ptr, i32, ptr, i32, i8, ptr, %struct.SignatureCtx, i32, i32, i32 }
%struct.SignatureCtx = type { ptr, ptr, ptr, ptr, i32, %union.anon, i32, i32, i32, i32, i32, i32, i32, i32 }
%union.anon = type { ptr }
%struct.DNS_entry = type { ptr, i32, i32, ptr }

; Function Attrs: nounwind uwtable
define i32 @CheckForAltNames(ptr noundef %0, ptr noundef %1, i32 noundef %2, ptr noundef %3, i32 noundef %4) #0 {
  %6 = alloca ptr, align 8
  %7 = alloca ptr, align 8
  %8 = alloca i32, align 4
  %9 = alloca ptr, align 8
  %10 = alloca i32, align 4
  %11 = alloca i32, align 4
  %12 = alloca ptr, align 8
  %13 = alloca ptr, align 8
  %14 = alloca i32, align 4
  store ptr %0, ptr %6, align 8, !tbaa !283
  store ptr %1, ptr %7, align 8, !tbaa !89
  store i32 %2, ptr %8, align 4, !tbaa !47
  store ptr %3, ptr %9, align 8, !tbaa !143
  store i32 %4, ptr %10, align 4, !tbaa !47
  call void @llvm.lifetime.start.p0(i64 4, ptr %11) #9
  store i32 0, ptr %11, align 4, !tbaa !47
  call void @llvm.lifetime.start.p0(i64 8, ptr %12) #9
  store ptr null, ptr %12, align 8, !tbaa !285
  call void @llvm.lifetime.start.p0(i64 8, ptr %13) #9
  call void @llvm.lifetime.start.p0(i64 4, ptr %14) #9
  br label %15

15:                                               ; preds = %5
  br label %16

16:                                               ; preds = %15
  br label %17

17:                                               ; preds = %16
  %18 = load ptr, ptr %6, align 8, !tbaa !283
  %19 = icmp ne ptr %18, null
  br i1 %19, label %20, label %24

20:                                               ; preds = %17
  %21 = load ptr, ptr %6, align 8, !tbaa !283
  %22 = getelementptr inbounds nuw %struct.DecodedCert, ptr %21, i32 0, i32 11
  %23 = load ptr, ptr %22, align 8, !tbaa !286
  store ptr %23, ptr %12, align 8, !tbaa !285
  br label %24

24:                                               ; preds = %20, %17
  %25 = load ptr, ptr %9, align 8, !tbaa !143
  %26 = icmp ne ptr %25, null
  br i1 %26, label %27, label %32

27:                                               ; preds = %24
  %28 = load ptr, ptr %12, align 8, !tbaa !285
  %29 = icmp eq ptr %28, null
  %30 = select i1 %29, i32 1, i32 0
  %31 = load ptr, ptr %9, align 8, !tbaa !143
  store i32 %30, ptr %31, align 4, !tbaa !47
  br label %32

32:                                               ; preds = %27, %24
  br label %33

33:                                               ; preds = %79, %32
  %34 = load ptr, ptr %12, align 8, !tbaa !285
  %35 = icmp ne ptr %34, null
  br i1 %35, label %36, label %83

36:                                               ; preds = %33
  br label %37

37:                                               ; preds = %36
  br label %38

38:                                               ; preds = %37
  br label %39

39:                                               ; preds = %38
  %40 = load ptr, ptr %12, align 8, !tbaa !285
  %41 = getelementptr inbounds nuw %struct.DNS_entry, ptr %40, i32 0, i32 3
  %42 = load ptr, ptr %41, align 8, !tbaa !291
  store ptr %42, ptr %13, align 8, !tbaa !89
  %43 = load ptr, ptr %12, align 8, !tbaa !285
  %44 = getelementptr inbounds nuw %struct.DNS_entry, ptr %43, i32 0, i32 2
  %45 = load i32, ptr %44, align 4, !tbaa !293
  store i32 %45, ptr %14, align 4, !tbaa !47
  %46 = load ptr, ptr %13, align 8, !tbaa !89
  %47 = load i32, ptr %14, align 4, !tbaa !47
  %48 = load ptr, ptr %7, align 8, !tbaa !89
  %49 = load i32, ptr %8, align 4, !tbaa !47
  %50 = load i32, ptr %10, align 4, !tbaa !47
  %51 = call i32 @MatchDomainName(ptr noundef %46, i32 noundef %47, ptr noundef %48, i32 noundef %49, i32 noundef %50)
  %52 = icmp ne i32 %51, 0
  br i1 %52, label %53, label %62

53:                                               ; preds = %39
  store i32 1, ptr %11, align 4, !tbaa !47
  %54 = load ptr, ptr %9, align 8, !tbaa !143
  %55 = icmp ne ptr %54, null
  br i1 %55, label %56, label %58

56:                                               ; preds = %53
  %57 = load ptr, ptr %9, align 8, !tbaa !143
  store i32 0, ptr %57, align 4, !tbaa !47
  br label %58

58:                                               ; preds = %56, %53
  br label %59

59:                                               ; preds = %58
  br label %60

60:                                               ; preds = %59
  br label %61

61:                                               ; preds = %60
  br label %83

62:                                               ; preds = %39
  %63 = load ptr, ptr %13, align 8, !tbaa !89
  %64 = icmp ne ptr %63, null
  br i1 %64, label %65, label %78

65:                                               ; preds = %62
  %66 = load i32, ptr %14, align 4, !tbaa !47
  %67 = icmp uge i32 %66, 1
  br i1 %67, label %68, label %78

68:                                               ; preds = %65
  %69 = load ptr, ptr %13, align 8, !tbaa !89
  %70 = getelementptr inbounds i8, ptr %69, i64 0
  %71 = load i8, ptr %70, align 1, !tbaa !54
  %72 = sext i8 %71 to i32
  %73 = icmp eq i32 %72, 42
  br i1 %73, label %74, label %78

74:                                               ; preds = %68
  store i32 -1, ptr %11, align 4, !tbaa !47
  br label %75

75:                                               ; preds = %74
  br label %76

76:                                               ; preds = %75
  br label %77

77:                                               ; preds = %76
  br label %78

78:                                               ; preds = %77, %68, %65, %62
  br label %79

79:                                               ; preds = %78
  %80 = load ptr, ptr %12, align 8, !tbaa !285
  %81 = getelementptr inbounds nuw %struct.DNS_entry, ptr %80, i32 0, i32 0
  %82 = load ptr, ptr %81, align 8, !tbaa !294
  store ptr %82, ptr %12, align 8, !tbaa !285
  br label %33, !llvm.loop !295

83:                                               ; preds = %61, %33
  %84 = load i32, ptr %11, align 4, !tbaa !47
  call void @llvm.lifetime.end.p0(i64 4, ptr %14) #9
  call void @llvm.lifetime.end.p0(i64 8, ptr %13) #9
  call void @llvm.lifetime.end.p0(i64 8, ptr %12) #9
  call void @llvm.lifetime.end.p0(i64 4, ptr %11) #9
  ret i32 %84
}