; Function Attrs: nofree nosync nounwind memory(read, argmem: readwrite, inaccessiblemem: none) uwtable
define range(i32 -1, 2) i32 @CheckForAltNames(ptr noundef readonly captures(address_is_null) %0, ptr noundef readonly captures(address_is_null) %1, i32 noundef %2, ptr noundef writeonly captures(address_is_null) %3, i32 noundef %4) local_unnamed_addr #13 {
  %.not = icmp eq ptr %0, null
  br i1 %.not, label %9, label %6

6:                                                ; preds = %5
  %7 = getelementptr inbounds nuw i8, ptr %0, i64 48
  %8 = load ptr, ptr %7, align 8, !tbaa !241
  br label %9

9:                                                ; preds = %6, %5
  %.020 = phi ptr [ %8, %6 ], [ null, %5 ]
  %.not26 = icmp eq ptr %3, null
  br i1 %.not26, label %13, label %10

10:                                               ; preds = %9
  %11 = icmp eq ptr %.020, null
  %12 = zext i1 %11 to i32
  store i32 %12, ptr %3, align 4, !tbaa !49
  br label %13

13:                                               ; preds = %10, %9
  %.not2730 = icmp eq ptr %.020, null
  br i1 %.not2730, label %.loopexit, label %.lr.ph

.lr.ph:                                           ; preds = %13, %27
  %.032 = phi i32 [ %.2, %27 ], [ 0, %13 ]
  %.12131 = phi ptr [ %28, %27 ], [ %.020, %13 ]
  %14 = getelementptr inbounds nuw i8, ptr %.12131, i64 16
  %15 = load ptr, ptr %14, align 8, !tbaa !246
  %16 = getelementptr inbounds nuw i8, ptr %.12131, i64 12
  %17 = load i32, ptr %16, align 4, !tbaa !248
  %18 = tail call i32 @MatchDomainName(ptr noundef %15, i32 noundef %17, ptr noundef %1, i32 noundef %2, i32 noundef %4)
  %.not28 = icmp eq i32 %18, 0
  br i1 %.not28, label %21, label %19

19:                                               ; preds = %.lr.ph
  br i1 %.not26, label %.loopexit, label %20

20:                                               ; preds = %19
  store i32 0, ptr %3, align 4, !tbaa !49
  br label %.loopexit

21:                                               ; preds = %.lr.ph
  %22 = icmp ne ptr %15, null
  %23 = icmp ne i32 %17, 0
  %or.cond = and i1 %22, %23
  br i1 %or.cond, label %24, label %27

24:                                               ; preds = %21
  %25 = load i8, ptr %15, align 1, !tbaa !45
  %26 = icmp eq i8 %25, 42
  %spec.select = select i1 %26, i32 -1, i32 %.032
  br label %27

27:                                               ; preds = %24, %21
  %.2 = phi i32 [ %.032, %21 ], [ %spec.select, %24 ]
  %28 = load ptr, ptr %.12131, align 8, !tbaa !249
  %.not27 = icmp eq ptr %28, null
  br i1 %.not27, label %.loopexit, label %.lr.ph, !llvm.loop !250

.loopexit:                                        ; preds = %27, %13, %20, %19
  %.1 = phi i32 [ 1, %20 ], [ 1, %19 ], [ 0, %13 ], [ %.2, %27 ]
  ret i32 %.1
}